; ModuleID = '22/873.c'
source_filename = "22/873.c"
target datalayout = "e-m:e-p270:32:32-p271:32:32-p272:64:64-i64:64-f80:128-n8:16:32:64-S128"
target triple = "x86_64-pc-linux-gnu"

@.str = private unnamed_addr constant [3 x i8] c"%d\00", align 1
@.str.1 = private unnamed_addr constant [3 x i8] c"%c\00", align 1
@.str.2 = private unnamed_addr constant [3 x i8] c"No\00", align 1

; Function Attrs: noinline nounwind uwtable
define dso_local i32 @main() #0 {
  %1 = alloca i32, align 4
  %2 = alloca i8, align 1
  %3 = alloca i32, align 4
  %4 = alloca i32, align 4
  %5 = alloca i32, align 4
  %6 = alloca i32, align 4
  store i32 0, i32* %1, align 4
  store i32 -1, i32* %4, align 4
  %7 = call i32 (i8*, ...) @__isoc99_scanf(i8* getelementptr inbounds ([3 x i8], [3 x i8]* @.str, i64 0, i64 0), i32* %6)
  %8 = load i32, i32* %6, align 4
  store i32 %8, i32* %3, align 4
  %9 = call i32 (i8*, ...) @__isoc99_scanf(i8* getelementptr inbounds ([3 x i8], [3 x i8]* @.str.1, i64 0, i64 0), i8* %2)
  br label %10

10:                                               ; preds = %33, %0
  %11 = load i8, i8* %2, align 1
  %12 = sext i8 %11 to i32
  %13 = icmp eq i32 %12, 44
  br i1 %13, label %14, label %35

14:                                               ; preds = %10
  %15 = call i32 (i8*, ...) @__isoc99_scanf(i8* getelementptr inbounds ([3 x i8], [3 x i8]* @.str, i64 0, i64 0), i32* %6)
  %16 = load i32, i32* %3, align 4
  %17 = load i32, i32* %6, align 4
  %18 = icmp slt i32 %16, %17
  br i1 %18, label %19, label %22

19:                                               ; preds = %14
  %20 = load i32, i32* %3, align 4
  store i32 %20, i32* %4, align 4
  %21 = load i32, i32* %6, align 4
  store i32 %21, i32* %3, align 4
  br label %33

22:                                               ; preds = %14
  %23 = load i32, i32* %4, align 4
  %24 = load i32, i32* %6, align 4
  %25 = icmp slt i32 %23, %24
  br i1 %25, label %26, label %32

26:                                               ; preds = %22
  %27 = load i32, i32* %6, align 4
  %28 = load i32, i32* %3, align 4
  %29 = icmp ne i32 %27, %28
  br i1 %29, label %30, label %32

30:                                               ; preds = %26
  %31 = load i32, i32* %6, align 4
  store i32 %31, i32* %4, align 4
  br label %32

32:                                               ; preds = %30, %26, %22
  br label %33

33:                                               ; preds = %32, %19
  %34 = call i32 (i8*, ...) @__isoc99_scanf(i8* getelementptr inbounds ([3 x i8], [3 x i8]* @.str.1, i64 0, i64 0), i8* %2)
  br label %10

35:                                               ; preds = %10
  %36 = load i32, i32* %4, align 4
  %37 = icmp eq i32 %36, -1
  br i1 %37, label %38, label %40

38:                                               ; preds = %35
  %39 = call i32 (i8*, ...) @printf(i8* getelementptr inbounds ([3 x i8], [3 x i8]* @.str.2, i64 0, i64 0))
  br label %43

40:                                               ; preds = %35
  %41 = load i32, i32* %4, align 4
  %42 = call i32 (i8*, ...) @printf(i8* getelementptr inbounds ([3 x i8], [3 x i8]* @.str, i64 0, i64 0), i32 %41)
  br label %43

43:                                               ; preds = %40, %38
  ret i32 0
}

declare dso_local i32 @__isoc99_scanf(i8*, ...) #1

declare dso_local i32 @printf(i8*, ...) #1


!llvm.module.flags = !{!0}
!llvm.ident = !{!1}

!0 = !{i32 1, !"wchar_size", i32 4}
!1 = !{!"clang version 10.0.0-4ubuntu1 "}
